target datalayout = "e-m:e-p270:32:32-p271:32:32-p272:64:64-i64:64-i128:128-f80:128-n8:16:32:64-S128"
target triple = "x86_64-pc-linux-gnu"

%struct._lv_iter_t = type { ptr, i32, ptr, i32, ptr, i32, ptr }

; Function Attrs: nounwind uwtable
define i32 @lv_iter_peek_advance(ptr noundef %0) #0 {
  %2 = alloca i32, align 4
  %3 = alloca ptr, align 8
  store ptr %0, ptr %3, align 8, !tbaa !3
  br label %4

4:                                                ; preds = %1
  %5 = load ptr, ptr %3, align 8, !tbaa !3
  %6 = icmp ne ptr %5, null
  br i1 %6, label %11, label %7

7:                                                ; preds = %4
  br label %8

8:                                                ; preds = %7
  br label %9

9:                                                ; preds = %8
  br label %10

10:                                               ; preds = %9, %10
  br label %10

11:                                               ; preds = %4
  br label %12

12:                                               ; preds = %11
  %13 = load ptr, ptr %3, align 8, !tbaa !3
  %14 = icmp eq ptr %13, null
  br i1 %14, label %15, label %16

15:                                               ; preds = %12
  store i32 0, ptr %2, align 4
  br label %37

16:                                               ; preds = %12
  %17 = load ptr, ptr %3, align 8, !tbaa !3
  %18 = getelementptr inbounds nuw %struct._lv_iter_t, ptr %17, i32 0, i32 4
  %19 = load ptr, ptr %18, align 8, !tbaa !15
  %20 = icmp eq ptr %19, null
  br i1 %20, label %31, label %21

21:                                               ; preds = %16
  %22 = load ptr, ptr %3, align 8, !tbaa !3
  %23 = getelementptr inbounds nuw %struct._lv_iter_t, ptr %22, i32 0, i32 5
  %24 = load i32, ptr %23, align 8, !tbaa !16
  %25 = add i32 %24, 1
  %26 = load ptr, ptr %3, align 8, !tbaa !3
  %27 = getelementptr inbounds nuw %struct._lv_iter_t, ptr %26, i32 0, i32 4
  %28 = load ptr, ptr %27, align 8, !tbaa !15
  %29 = call i32 @lv_circle_buf_capacity(ptr noundef %28)
  %30 = icmp uge i32 %25, %29
  br i1 %30, label %31, label %32

31:                                               ; preds = %21, %16
  store i32 0, ptr %2, align 4
  br label %37

32:                                               ; preds = %21
  %33 = load ptr, ptr %3, align 8, !tbaa !3
  %34 = getelementptr inbounds nuw %struct._lv_iter_t, ptr %33, i32 0, i32 5
  %35 = load i32, ptr %34, align 8, !tbaa !16
  %36 = add i32 %35, 1
  store i32 %36, ptr %34, align 8, !tbaa !16
  store i32 1, ptr %2, align 4
  br label %37

37:                                               ; preds = %32, %31, %15
  %38 = load i32, ptr %2, align 4
  ret i32 %38
}