; Function Attrs: nounwind uwtable
define range(i32 0, 2) i32 @lv_iter_peek_advance(ptr noundef %0) local_unnamed_addr #0 {
  %.not = icmp eq ptr %0, null
  br i1 %.not, label %.preheader, label %2

.preheader:                                       ; preds = %1, %.preheader
  br label %.preheader

2:                                                ; preds = %1
  %3 = getelementptr inbounds nuw i8, ptr %0, i64 32
  %4 = load ptr, ptr %3, align 8, !tbaa !13
  %5 = icmp eq ptr %4, null
  br i1 %5, label %14, label %6

6:                                                ; preds = %2
  %7 = getelementptr inbounds nuw i8, ptr %0, i64 40
  %8 = load i32, ptr %7, align 8, !tbaa !14
  %9 = add i32 %8, 1
  %10 = tail call i32 @lv_circle_buf_capacity(ptr noundef nonnull %4) #4
  %.not8 = icmp ult i32 %9, %10
  br i1 %.not8, label %11, label %14

11:                                               ; preds = %6
  %12 = load i32, ptr %7, align 8, !tbaa !14
  %13 = add i32 %12, 1
  store i32 %13, ptr %7, align 8, !tbaa !14
  br label %14

14:                                               ; preds = %2, %6, %11
  %.0 = phi i32 [ 1, %11 ], [ 0, %6 ], [ 0, %2 ]
  ret i32 %.0
}